; Function Attrs: mustprogress uwtable
define void @_ZN7rocksdb19WriteBatchWithIndex3Rep24AddOrUpdateIndexWithCfIdEjRKNS_5SliceENS_9WriteTypeEmPKNS_10ComparatorE(ptr noundef nonnull align 16 dereferenceable(2632) %0, i32 noundef %1, ptr noundef nonnull align 8 dereferenceable(16) %2, i32 noundef %3, i64 noundef %4, ptr noundef %5) local_unnamed_addr #4 align 2 personality ptr @__gxx_personality_v0 {
  %7 = alloca ptr, align 8
  %8 = alloca i32, align 4
  call void @llvm.lifetime.start.p0(i64 4, ptr nonnull %8) #26
  store i32 0, ptr %8, align 4, !tbaa !18
  %9 = call noundef zeroext i1 @_ZN7rocksdb19WriteBatchWithIndex3Rep27UpdateExistingEntryWithCfIdEjRKNS_5SliceENS_9WriteTypeEmPj(ptr noundef nonnull align 16 dereferenceable(2632) %0, i32 noundef %1, ptr noundef nonnull align 8 dereferenceable(16) %2, i32 noundef %3, i64 noundef %4, ptr noundef nonnull %8)
  br i1 %9, label %37, label %10

10:                                               ; preds = %6
  %.not = icmp eq ptr %5, null
  br i1 %.not, label %34, label %11

11:                                               ; preds = %10
  %12 = zext i32 %1 to i64
  %13 = getelementptr inbounds nuw i8, ptr %0, i64 168
  %14 = getelementptr inbounds nuw i8, ptr %0, i64 176
  %15 = load ptr, ptr %14, align 16, !tbaa !130
  %16 = load ptr, ptr %13, align 8, !tbaa !131
  %17 = ptrtoint ptr %15 to i64
  %18 = ptrtoint ptr %16 to i64
  %19 = sub i64 %17, %18
  %20 = ashr exact i64 %19, 3
  %.not.i = icmp ugt i64 %20, %12
  br i1 %.not.i, label %_ZN7rocksdb25WriteBatchEntryComparator18SetComparatorForCFEjPKNS_10ComparatorE.exit, label %21

21:                                               ; preds = %11
  %22 = add i32 %1, 1
  %23 = zext i32 %22 to i64
  call void @llvm.lifetime.start.p0(i64 8, ptr nonnull %7) #26
  store ptr null, ptr %7, align 8, !tbaa !132
  %24 = icmp samesign ult i64 %20, %23
  br i1 %24, label %25, label %27

25:                                               ; preds = %21
  %26 = sub nuw nsw i64 %23, %20
  call void @_ZNSt6vectorIPKN7rocksdb10ComparatorESaIS3_EE14_M_fill_insertEN9__gnu_cxx17__normal_iteratorIPS3_S5_EEmRKS3_(ptr noundef nonnull align 8 dereferenceable(24) %13, ptr %15, i64 noundef %26, ptr noundef nonnull align 8 dereferenceable(8) %7)
  %.pre.pre.i = load ptr, ptr %13, align 8, !tbaa !131
  br label %_ZNSt6vectorIPKN7rocksdb10ComparatorESaIS3_EE6resizeEmRKS3_.exit.i

27:                                               ; preds = %21
  %28 = icmp samesign ugt i64 %20, %23
  br i1 %28, label %29, label %_ZNSt6vectorIPKN7rocksdb10ComparatorESaIS3_EE6resizeEmRKS3_.exit.i

29:                                               ; preds = %27
  %30 = getelementptr inbounds nuw ptr, ptr %16, i64 %23
  %.not.i.i.i = icmp eq ptr %15, %30
  br i1 %.not.i.i.i, label %_ZNSt6vectorIPKN7rocksdb10ComparatorESaIS3_EE6resizeEmRKS3_.exit.i, label %31

31:                                               ; preds = %29
  store ptr %30, ptr %14, align 16, !tbaa !130
  br label %_ZNSt6vectorIPKN7rocksdb10ComparatorESaIS3_EE6resizeEmRKS3_.exit.i

_ZNSt6vectorIPKN7rocksdb10ComparatorESaIS3_EE6resizeEmRKS3_.exit.i: ; preds = %31, %29, %27, %25
  %.pre.i = phi ptr [ %.pre.pre.i, %25 ], [ %16, %27 ], [ %16, %29 ], [ %16, %31 ]
  call void @llvm.lifetime.end.p0(i64 8, ptr nonnull %7) #26
  br label %_ZN7rocksdb25WriteBatchEntryComparator18SetComparatorForCFEjPKNS_10ComparatorE.exit

_ZN7rocksdb25WriteBatchEntryComparator18SetComparatorForCFEjPKNS_10ComparatorE.exit: ; preds = %11, %_ZNSt6vectorIPKN7rocksdb10ComparatorESaIS3_EE6resizeEmRKS3_.exit.i
  %32 = phi ptr [ %.pre.i, %_ZNSt6vectorIPKN7rocksdb10ComparatorESaIS3_EE6resizeEmRKS3_.exit.i ], [ %16, %11 ]
  %33 = getelementptr inbounds nuw ptr, ptr %32, i64 %12
  store ptr %5, ptr %33, align 8, !tbaa !132
  br label %34

34:                                               ; preds = %_ZN7rocksdb25WriteBatchEntryComparator18SetComparatorForCFEjPKNS_10ComparatorE.exit, %10
  %35 = load i32, ptr %8, align 4, !tbaa !18
  %36 = add i32 %35, 1
  call void @_ZN7rocksdb19WriteBatchWithIndex3Rep11AddNewEntryEjNS_9WriteTypeEmj(ptr noundef nonnull align 16 dereferenceable(2632) %0, i32 noundef %1, i32 noundef %3, i64 noundef %4, i32 noundef %36)
  br label %37

37:                                               ; preds = %34, %6
  call void @llvm.lifetime.end.p0(i64 4, ptr nonnull %8) #26
  ret void
}